target datalayout = "e-m:e-p270:32:32-p271:32:32-p272:64:64-i64:64-i128:128-f80:128-n8:16:32:64-S128"
target triple = "x86_64-pc-linux-gnu"

%struct._zend_array = type { %struct._zend_refcounted_h, %union.anon.1, i32, %union.anon.2, i32, i32, i32, i32, i64, ptr }
%struct._zend_refcounted_h = type { i32, %union.anon.0 }
%union.anon.0 = type { i32 }
%union.anon.1 = type { i32 }
%union.anon.2 = type { ptr }

@classes = internal global %struct._zend_array zeroinitializer, align 8
@dom_node_prop_handlers = internal global %struct._zend_array zeroinitializer, align 8
@dom_namespace_node_prop_handlers = internal global %struct._zend_array zeroinitializer, align 8
@dom_documentfragment_prop_handlers = internal global %struct._zend_array zeroinitializer, align 8
@dom_document_prop_handlers = internal global %struct._zend_array zeroinitializer, align 8
@dom_html_document_prop_handlers = internal global %struct._zend_array zeroinitializer, align 8
@dom_xml_document_prop_handlers = internal global %struct._zend_array zeroinitializer, align 8
@dom_nodelist_prop_handlers = internal global %struct._zend_array zeroinitializer, align 8
@dom_namednodemap_prop_handlers = internal global %struct._zend_array zeroinitializer, align 8
@dom_characterdata_prop_handlers = internal global %struct._zend_array zeroinitializer, align 8
@dom_attr_prop_handlers = internal global %struct._zend_array zeroinitializer, align 8
@dom_element_prop_handlers = internal global %struct._zend_array zeroinitializer, align 8
@dom_text_prop_handlers = internal global %struct._zend_array zeroinitializer, align 8
@dom_documenttype_prop_handlers = internal global %struct._zend_array zeroinitializer, align 8
@dom_notation_prop_handlers = internal global %struct._zend_array zeroinitializer, align 8
@dom_entity_prop_handlers = internal global %struct._zend_array zeroinitializer, align 8
@dom_processinginstruction_prop_handlers = internal global %struct._zend_array zeroinitializer, align 8
@dom_xpath_prop_handlers = internal global %struct._zend_array zeroinitializer, align 8

; Function Attrs: nounwind uwtable
define hidden i32 @zm_shutdown_dom(i32 noundef %0, i32 noundef %1) #0 {
  %3 = alloca i32, align 4
  %4 = alloca i32, align 4
  store i32 %0, ptr %3, align 4
  store i32 %1, ptr %4, align 4
  call void @zend_hash_destroy(ptr noundef @dom_document_prop_handlers)
  call void @zend_hash_destroy(ptr noundef @dom_html_document_prop_handlers)
  call void @zend_hash_destroy(ptr noundef @dom_xml_document_prop_handlers)
  call void @zend_hash_destroy(ptr noundef @dom_documentfragment_prop_handlers)
  call void @zend_hash_destroy(ptr noundef @dom_node_prop_handlers)
  call void @zend_hash_destroy(ptr noundef @dom_namespace_node_prop_handlers)
  call void @zend_hash_destroy(ptr noundef @dom_nodelist_prop_handlers)
  call void @zend_hash_destroy(ptr noundef @dom_namednodemap_prop_handlers)
  call void @zend_hash_destroy(ptr noundef @dom_characterdata_prop_handlers)
  call void @zend_hash_destroy(ptr noundef @dom_attr_prop_handlers)
  call void @zend_hash_destroy(ptr noundef @dom_element_prop_handlers)
  call void @zend_hash_destroy(ptr noundef @dom_text_prop_handlers)
  call void @zend_hash_destroy(ptr noundef @dom_documenttype_prop_handlers)
  call void @zend_hash_destroy(ptr noundef @dom_notation_prop_handlers)
  call void @zend_hash_destroy(ptr noundef @dom_entity_prop_handlers)
  call void @zend_hash_destroy(ptr noundef @dom_processinginstruction_prop_handlers)
  call void @zend_hash_destroy(ptr noundef @dom_xpath_prop_handlers)
  call void @zend_hash_destroy(ptr noundef @classes)
  ret i32 0
}