; Function Attrs: nounwind uwtable
define hidden noundef i32 @zm_shutdown_dom(i32 %0, i32 %1) #1 {
  tail call void @zend_hash_destroy(ptr noundef nonnull @dom_document_prop_handlers) #16
  tail call void @zend_hash_destroy(ptr noundef nonnull @dom_html_document_prop_handlers) #16
  tail call void @zend_hash_destroy(ptr noundef nonnull @dom_xml_document_prop_handlers) #16
  tail call void @zend_hash_destroy(ptr noundef nonnull @dom_documentfragment_prop_handlers) #16
  tail call void @zend_hash_destroy(ptr noundef nonnull @dom_node_prop_handlers) #16
  tail call void @zend_hash_destroy(ptr noundef nonnull @dom_namespace_node_prop_handlers) #16
  tail call void @zend_hash_destroy(ptr noundef nonnull @dom_nodelist_prop_handlers) #16
  tail call void @zend_hash_destroy(ptr noundef nonnull @dom_namednodemap_prop_handlers) #16
  tail call void @zend_hash_destroy(ptr noundef nonnull @dom_characterdata_prop_handlers) #16
  tail call void @zend_hash_destroy(ptr noundef nonnull @dom_attr_prop_handlers) #16
  tail call void @zend_hash_destroy(ptr noundef nonnull @dom_element_prop_handlers) #16
  tail call void @zend_hash_destroy(ptr noundef nonnull @dom_text_prop_handlers) #16
  tail call void @zend_hash_destroy(ptr noundef nonnull @dom_documenttype_prop_handlers) #16
  tail call void @zend_hash_destroy(ptr noundef nonnull @dom_notation_prop_handlers) #16
  tail call void @zend_hash_destroy(ptr noundef nonnull @dom_entity_prop_handlers) #16
  tail call void @zend_hash_destroy(ptr noundef nonnull @dom_processinginstruction_prop_handlers) #16
  tail call void @zend_hash_destroy(ptr noundef nonnull @dom_xpath_prop_handlers) #16
  tail call void @zend_hash_destroy(ptr noundef nonnull @classes) #16
  ret i32 0
}